(lp0
ccopy_reg
_reconstructor
p1
(c__main__
Project
p2
c__builtin__
object
p3
Ntp4
Rp5
(dp6
S'username'
p7
S'alex'
p8
sS'project'
p9
(dp10
S'test'
p11
(lp12
ssS'project_name'
p13
g11
sS'args'
p14
g12
sba.