(lp0
ccopy_reg
_reconstructor
p1
(c__main__
User
p2
c__builtin__
object
p3
Ntp4
Rp5
(dp6
S'username'
p7
S'alex'
p8
sS'password'
p9
S'go'
p10
sS'projects'
p11
g1
(c__main__
ProjectList
p12
g3
Ntp13
Rp14
(dp15
g7
g8
sS'args'
p16
(lp17
sbsba.